target datalayout = "e-m:e-p270:32:32-p271:32:32-p272:64:64-i64:64-i128:128-f80:128-n8:16:32:64-S128"
target triple = "x86_64-pc-linux-gnu"

%"class.cv::Rect_" = type { i32, i32, i32, i32 }

; Function Attrs: mustprogress nounwind uwtable
define linkonce_odr noundef nonnull align 4 dereferenceable(4) ptr @_ZSt3minIiERKT_S2_S2_(ptr noundef nonnull align 4 dereferenceable(4) %0, ptr noundef nonnull align 4 dereferenceable(4) %1) #5 comdat {
  %3 = alloca ptr, align 8
  %4 = alloca ptr, align 8
  %5 = alloca ptr, align 8
  store ptr %0, ptr %4, align 8
  store ptr %1, ptr %5, align 8
  %6 = load ptr, ptr %5, align 8
  %7 = load i32, ptr %6, align 4
  %8 = load ptr, ptr %4, align 8
  %9 = load i32, ptr %8, align 4
  %10 = icmp slt i32 %7, %9
  br i1 %10, label %11, label %13

11:                                               ; preds = %2
  %12 = load ptr, ptr %5, align 8
  store ptr %12, ptr %3, align 8
  br label %15

13:                                               ; preds = %2
  %14 = load ptr, ptr %4, align 8
  store ptr %14, ptr %3, align 8
  br label %15

15:                                               ; preds = %13, %11
  %16 = load ptr, ptr %3, align 8
  ret ptr %16
}

; Function Attrs: mustprogress nounwind uwtable
define linkonce_odr hidden void @_ZN2cv5Rect_IiEC2Ev(ptr noundef nonnull align 4 dereferenceable(16) %0) unnamed_addr #5 comdat align 2 {
  %2 = alloca ptr, align 8
  store ptr %0, ptr %2, align 8
  %3 = load ptr, ptr %2, align 8
  %4 = getelementptr inbounds %"class.cv::Rect_", ptr %3, i32 0, i32 0
  store i32 0, ptr %4, align 4
  %5 = getelementptr inbounds %"class.cv::Rect_", ptr %3, i32 0, i32 1
  store i32 0, ptr %5, align 4
  %6 = getelementptr inbounds %"class.cv::Rect_", ptr %3, i32 0, i32 2
  store i32 0, ptr %6, align 4
  %7 = getelementptr inbounds %"class.cv::Rect_", ptr %3, i32 0, i32 3
  store i32 0, ptr %7, align 4
  ret void
}

; Function Attrs: mustprogress nounwind uwtable
define linkonce_odr hidden noundef zeroext i1 @_ZNK2cv5Rect_IiE5emptyEv(ptr noundef nonnull align 4 dereferenceable(16) %0) #5 comdat align 2 {
  %2 = alloca ptr, align 8
  store ptr %0, ptr %2, align 8
  %3 = load ptr, ptr %2, align 8
  %4 = getelementptr inbounds %"class.cv::Rect_", ptr %3, i32 0, i32 2
  %5 = load i32, ptr %4, align 4
  %6 = icmp sle i32 %5, 0
  br i1 %6, label %11, label %7

7:                                                ; preds = %1
  %8 = getelementptr inbounds %"class.cv::Rect_", ptr %3, i32 0, i32 3
  %9 = load i32, ptr %8, align 4
  %10 = icmp sle i32 %9, 0
  br label %11

11:                                               ; preds = %7, %1
  %12 = phi i1 [ true, %1 ], [ %10, %7 ]
  ret i1 %12
}

; Function Attrs: mustprogress uwtable
define internal noundef nonnull align 4 dereferenceable(16) ptr @_ZN2cvaNIiEERNS_5Rect_IT_EES4_RKS3_(ptr noundef nonnull align 4 dereferenceable(16) %0, ptr noundef nonnull align 4 dereferenceable(16) %1) #4 {
  %3 = alloca ptr, align 8
  %4 = alloca ptr, align 8
  %5 = alloca ptr, align 8
  %6 = alloca %"class.cv::Rect_", align 4
  %7 = alloca ptr, align 8
  %8 = alloca ptr, align 8
  %9 = alloca ptr, align 8
  %10 = alloca ptr, align 8
  %11 = alloca %"class.cv::Rect_", align 4
  %12 = alloca i32, align 4
  %13 = alloca i32, align 4
  %14 = alloca %"class.cv::Rect_", align 4
  store ptr %0, ptr %4, align 8
  store ptr %1, ptr %5, align 8
  %15 = load ptr, ptr %4, align 8
  %16 = call noundef zeroext i1 @_ZNK2cv5Rect_IiE5emptyEv(ptr noundef nonnull align 4 dereferenceable(16) %15)
  br i1 %16, label %20, label %17

17:                                               ; preds = %2
  %18 = load ptr, ptr %5, align 8
  %19 = call noundef zeroext i1 @_ZNK2cv5Rect_IiE5emptyEv(ptr noundef nonnull align 4 dereferenceable(16) %18)
  br i1 %19, label %20, label %23

20:                                               ; preds = %17, %2
  call void @_ZN2cv5Rect_IiEC2Ev(ptr noundef nonnull align 4 dereferenceable(16) %6)
  %21 = load ptr, ptr %4, align 8
  call void @llvm.memcpy.p0.p0.i64(ptr align 4 %21, ptr align 4 %6, i64 16, i1 false)
  %22 = load ptr, ptr %4, align 8
  store ptr %22, ptr %3, align 8
  br label %163

23:                                               ; preds = %17
  %24 = load ptr, ptr %4, align 8
  %25 = getelementptr inbounds %"class.cv::Rect_", ptr %24, i32 0, i32 0
  %26 = load i32, ptr %25, align 4
  %27 = load ptr, ptr %5, align 8
  %28 = getelementptr inbounds %"class.cv::Rect_", ptr %27, i32 0, i32 0
  %29 = load i32, ptr %28, align 4
  %30 = icmp slt i32 %26, %29
  br i1 %30, label %31, label %33

31:                                               ; preds = %23
  %32 = load ptr, ptr %4, align 8
  br label %35

33:                                               ; preds = %23
  %34 = load ptr, ptr %5, align 8
  br label %35

35:                                               ; preds = %33, %31
  %36 = phi ptr [ %32, %31 ], [ %34, %33 ]
  store ptr %36, ptr %7, align 8
  %37 = load ptr, ptr %4, align 8
  %38 = getelementptr inbounds %"class.cv::Rect_", ptr %37, i32 0, i32 0
  %39 = load i32, ptr %38, align 4
  %40 = load ptr, ptr %5, align 8
  %41 = getelementptr inbounds %"class.cv::Rect_", ptr %40, i32 0, i32 0
  %42 = load i32, ptr %41, align 4
  %43 = icmp slt i32 %39, %42
  br i1 %43, label %44, label %46

44:                                               ; preds = %35
  %45 = load ptr, ptr %5, align 8
  br label %48

46:                                               ; preds = %35
  %47 = load ptr, ptr %4, align 8
  br label %48

48:                                               ; preds = %46, %44
  %49 = phi ptr [ %45, %44 ], [ %47, %46 ]
  store ptr %49, ptr %8, align 8
  %50 = load ptr, ptr %4, align 8
  %51 = getelementptr inbounds %"class.cv::Rect_", ptr %50, i32 0, i32 1
  %52 = load i32, ptr %51, align 4
  %53 = load ptr, ptr %5, align 8
  %54 = getelementptr inbounds %"class.cv::Rect_", ptr %53, i32 0, i32 1
  %55 = load i32, ptr %54, align 4
  %56 = icmp slt i32 %52, %55
  br i1 %56, label %57, label %59

57:                                               ; preds = %48
  %58 = load ptr, ptr %4, align 8
  br label %61

59:                                               ; preds = %48
  %60 = load ptr, ptr %5, align 8
  br label %61

61:                                               ; preds = %59, %57
  %62 = phi ptr [ %58, %57 ], [ %60, %59 ]
  store ptr %62, ptr %9, align 8
  %63 = load ptr, ptr %4, align 8
  %64 = getelementptr inbounds %"class.cv::Rect_", ptr %63, i32 0, i32 1
  %65 = load i32, ptr %64, align 4
  %66 = load ptr, ptr %5, align 8
  %67 = getelementptr inbounds %"class.cv::Rect_", ptr %66, i32 0, i32 1
  %68 = load i32, ptr %67, align 4
  %69 = icmp slt i32 %65, %68
  br i1 %69, label %70, label %72

70:                                               ; preds = %61
  %71 = load ptr, ptr %5, align 8
  br label %74

72:                                               ; preds = %61
  %73 = load ptr, ptr %4, align 8
  br label %74

74:                                               ; preds = %72, %70
  %75 = phi ptr [ %71, %70 ], [ %73, %72 ]
  store ptr %75, ptr %10, align 8
  %76 = load ptr, ptr %7, align 8
  %77 = getelementptr inbounds %"class.cv::Rect_", ptr %76, i32 0, i32 0
  %78 = load i32, ptr %77, align 4
  %79 = icmp slt i32 %78, 0
  br i1 %79, label %80, label %92

80:                                               ; preds = %74
  %81 = load ptr, ptr %7, align 8
  %82 = getelementptr inbounds %"class.cv::Rect_", ptr %81, i32 0, i32 0
  %83 = load i32, ptr %82, align 4
  %84 = load ptr, ptr %7, align 8
  %85 = getelementptr inbounds %"class.cv::Rect_", ptr %84, i32 0, i32 2
  %86 = load i32, ptr %85, align 4
  %87 = add nsw i32 %83, %86
  %88 = load ptr, ptr %8, align 8
  %89 = getelementptr inbounds %"class.cv::Rect_", ptr %88, i32 0, i32 0
  %90 = load i32, ptr %89, align 4
  %91 = icmp slt i32 %87, %90
  br i1 %91, label %109, label %92

92:                                               ; preds = %80, %74
  %93 = load ptr, ptr %9, align 8
  %94 = getelementptr inbounds %"class.cv::Rect_", ptr %93, i32 0, i32 1
  %95 = load i32, ptr %94, align 4
  %96 = icmp slt i32 %95, 0
  br i1 %96, label %97, label %112

97:                                               ; preds = %92
  %98 = load ptr, ptr %9, align 8
  %99 = getelementptr inbounds %"class.cv::Rect_", ptr %98, i32 0, i32 1
  %100 = load i32, ptr %99, align 4
  %101 = load ptr, ptr %9, align 8
  %102 = getelementptr inbounds %"class.cv::Rect_", ptr %101, i32 0, i32 3
  %103 = load i32, ptr %102, align 4
  %104 = add nsw i32 %100, %103
  %105 = load ptr, ptr %10, align 8
  %106 = getelementptr inbounds %"class.cv::Rect_", ptr %105, i32 0, i32 1
  %107 = load i32, ptr %106, align 4
  %108 = icmp slt i32 %104, %107
  br i1 %108, label %109, label %112

109:                                              ; preds = %97, %80
  call void @_ZN2cv5Rect_IiEC2Ev(ptr noundef nonnull align 4 dereferenceable(16) %11)
  %110 = load ptr, ptr %4, align 8
  call void @llvm.memcpy.p0.p0.i64(ptr align 4 %110, ptr align 4 %11, i64 16, i1 false)
  %111 = load ptr, ptr %4, align 8
  store ptr %111, ptr %3, align 8
  br label %163

112:                                              ; preds = %97, %92
  %113 = load ptr, ptr %7, align 8
  %114 = getelementptr inbounds %"class.cv::Rect_", ptr %113, i32 0, i32 2
  %115 = load i32, ptr %114, align 4
  %116 = load ptr, ptr %8, align 8
  %117 = getelementptr inbounds %"class.cv::Rect_", ptr %116, i32 0, i32 0
  %118 = load i32, ptr %117, align 4
  %119 = load ptr, ptr %7, align 8
  %120 = getelementptr inbounds %"class.cv::Rect_", ptr %119, i32 0, i32 0
  %121 = load i32, ptr %120, align 4
  %122 = sub nsw i32 %118, %121
  %123 = sub nsw i32 %115, %122
  store i32 %123, ptr %12, align 4
  %124 = load ptr, ptr %8, align 8
  %125 = getelementptr inbounds %"class.cv::Rect_", ptr %124, i32 0, i32 2
  %126 = call noundef nonnull align 4 dereferenceable(4) ptr @_ZSt3minIiERKT_S2_S2_(ptr noundef nonnull align 4 dereferenceable(4) %12, ptr noundef nonnull align 4 dereferenceable(4) %125)
  %127 = load i32, ptr %126, align 4
  %128 = load ptr, ptr %4, align 8
  %129 = getelementptr inbounds %"class.cv::Rect_", ptr %128, i32 0, i32 2
  store i32 %127, ptr %129, align 4
  %130 = load ptr, ptr %9, align 8
  %131 = getelementptr inbounds %"class.cv::Rect_", ptr %130, i32 0, i32 3
  %132 = load i32, ptr %131, align 4
  %133 = load ptr, ptr %10, align 8
  %134 = getelementptr inbounds %"class.cv::Rect_", ptr %133, i32 0, i32 1
  %135 = load i32, ptr %134, align 4
  %136 = load ptr, ptr %9, align 8
  %137 = getelementptr inbounds %"class.cv::Rect_", ptr %136, i32 0, i32 1
  %138 = load i32, ptr %137, align 4
  %139 = sub nsw i32 %135, %138
  %140 = sub nsw i32 %132, %139
  store i32 %140, ptr %13, align 4
  %141 = load ptr, ptr %10, align 8
  %142 = getelementptr inbounds %"class.cv::Rect_", ptr %141, i32 0, i32 3
  %143 = call noundef nonnull align 4 dereferenceable(4) ptr @_ZSt3minIiERKT_S2_S2_(ptr noundef nonnull align 4 dereferenceable(4) %13, ptr noundef nonnull align 4 dereferenceable(4) %142)
  %144 = load i32, ptr %143, align 4
  %145 = load ptr, ptr %4, align 8
  %146 = getelementptr inbounds %"class.cv::Rect_", ptr %145, i32 0, i32 3
  store i32 %144, ptr %146, align 4
  %147 = load ptr, ptr %8, align 8
  %148 = getelementptr inbounds %"class.cv::Rect_", ptr %147, i32 0, i32 0
  %149 = load i32, ptr %148, align 4
  %150 = load ptr, ptr %4, align 8
  %151 = getelementptr inbounds %"class.cv::Rect_", ptr %150, i32 0, i32 0
  store i32 %149, ptr %151, align 4
  %152 = load ptr, ptr %10, align 8
  %153 = getelementptr inbounds %"class.cv::Rect_", ptr %152, i32 0, i32 1
  %154 = load i32, ptr %153, align 4
  %155 = load ptr, ptr %4, align 8
  %156 = getelementptr inbounds %"class.cv::Rect_", ptr %155, i32 0, i32 1
  store i32 %154, ptr %156, align 4
  %157 = load ptr, ptr %4, align 8
  %158 = call noundef zeroext i1 @_ZNK2cv5Rect_IiE5emptyEv(ptr noundef nonnull align 4 dereferenceable(16) %157)
  br i1 %158, label %159, label %161

159:                                              ; preds = %112
  call void @_ZN2cv5Rect_IiEC2Ev(ptr noundef nonnull align 4 dereferenceable(16) %14)
  %160 = load ptr, ptr %4, align 8
  call void @llvm.memcpy.p0.p0.i64(ptr align 4 %160, ptr align 4 %14, i64 16, i1 false)
  br label %161

161:                                              ; preds = %159, %112
  %162 = load ptr, ptr %4, align 8
  store ptr %162, ptr %3, align 8
  br label %163

163:                                              ; preds = %161, %109, %20
  %164 = load ptr, ptr %3, align 8
  ret ptr %164
}

; Function Attrs: mustprogress uwtable
define internal { i64, i64 } @_ZN2cvanIiEENS_5Rect_IT_EERKS3_S5_(ptr noundef nonnull align 4 dereferenceable(16) %0, ptr noundef nonnull align 4 dereferenceable(16) %1) #4 {
  %3 = alloca %"class.cv::Rect_", align 4
  %4 = alloca ptr, align 8
  %5 = alloca ptr, align 8
  %6 = alloca %"class.cv::Rect_", align 4
  store ptr %0, ptr %4, align 8
  store ptr %1, ptr %5, align 8
  %7 = load ptr, ptr %4, align 8
  call void @llvm.memcpy.p0.p0.i64(ptr align 4 %6, ptr align 4 %7, i64 16, i1 false)
  %8 = load ptr, ptr %5, align 8
  %9 = call noundef nonnull align 4 dereferenceable(16) ptr @_ZN2cvaNIiEERNS_5Rect_IT_EES4_RKS3_(ptr noundef nonnull align 4 dereferenceable(16) %6, ptr noundef nonnull align 4 dereferenceable(16) %8)
  call void @llvm.memcpy.p0.p0.i64(ptr align 4 %3, ptr align 4 %9, i64 16, i1 false)
  %10 = load { i64, i64 }, ptr %3, align 4
  ret { i64, i64 } %10
}

; Function Attrs: mustprogress nounwind uwtable
define linkonce_odr hidden noundef i32 @_ZNSt14numeric_limitsIiE7epsilonEv() #5 comdat align 2 {
  ret i32 0
}

; Function Attrs: mustprogress nounwind uwtable
define linkonce_odr hidden noundef i32 @_ZNK2cv5Rect_IiE4areaEv(ptr noundef nonnull align 4 dereferenceable(16) %0) #5 comdat align 2 {
  %2 = alloca ptr, align 8
  %3 = alloca i32, align 4
  store ptr %0, ptr %2, align 8
  %4 = load ptr, ptr %2, align 8
  %5 = getelementptr inbounds %"class.cv::Rect_", ptr %4, i32 0, i32 2
  %6 = load i32, ptr %5, align 4
  %7 = getelementptr inbounds %"class.cv::Rect_", ptr %4, i32 0, i32 3
  %8 = load i32, ptr %7, align 4
  %9 = mul nsw i32 %6, %8
  store i32 %9, ptr %3, align 4
  %10 = load i32, ptr %3, align 4
  ret i32 %10
}

; Function Attrs: mustprogress uwtable
define internal noundef double @_ZN2cvL15jaccardDistanceIiEEdRKNS_5Rect_IT_EES5_(ptr noundef nonnull align 4 dereferenceable(16) %0, ptr noundef nonnull align 4 dereferenceable(16) %1) #4 {
  %3 = alloca double, align 8
  %4 = alloca ptr, align 8
  %5 = alloca ptr, align 8
  %6 = alloca i32, align 4
  %7 = alloca i32, align 4
  %8 = alloca double, align 8
  %9 = alloca %"class.cv::Rect_", align 4
  store ptr %0, ptr %4, align 8
  store ptr %1, ptr %5, align 8
  %10 = load ptr, ptr %4, align 8
  %11 = call noundef i32 @_ZNK2cv5Rect_IiE4areaEv(ptr noundef nonnull align 4 dereferenceable(16) %10)
  store i32 %11, ptr %6, align 4
  %12 = load ptr, ptr %5, align 8
  %13 = call noundef i32 @_ZNK2cv5Rect_IiE4areaEv(ptr noundef nonnull align 4 dereferenceable(16) %12)
  store i32 %13, ptr %7, align 4
  %14 = load i32, ptr %6, align 4
  %15 = load i32, ptr %7, align 4
  %16 = add nsw i32 %14, %15
  %17 = call noundef i32 @_ZNSt14numeric_limitsIiE7epsilonEv() #3
  %18 = icmp sle i32 %16, %17
  br i1 %18, label %19, label %20

19:                                               ; preds = %2
  store double 0.000000e+00, ptr %3, align 8
  br label %39

20:                                               ; preds = %2
  %21 = load ptr, ptr %4, align 8
  %22 = load ptr, ptr %5, align 8
  %23 = call { i64, i64 } @_ZN2cvanIiEENS_5Rect_IT_EERKS3_S5_(ptr noundef nonnull align 4 dereferenceable(16) %21, ptr noundef nonnull align 4 dereferenceable(16) %22)
  %24 = getelementptr inbounds { i64, i64 }, ptr %9, i32 0, i32 0
  %25 = extractvalue { i64, i64 } %23, 0
  store i64 %25, ptr %24, align 4
  %26 = getelementptr inbounds { i64, i64 }, ptr %9, i32 0, i32 1
  %27 = extractvalue { i64, i64 } %23, 1
  store i64 %27, ptr %26, align 4
  %28 = call noundef i32 @_ZNK2cv5Rect_IiE4areaEv(ptr noundef nonnull align 4 dereferenceable(16) %9)
  %29 = sitofp i32 %28 to double
  store double %29, ptr %8, align 8
  %30 = load double, ptr %8, align 8
  %31 = load i32, ptr %6, align 4
  %32 = load i32, ptr %7, align 4
  %33 = add nsw i32 %31, %32
  %34 = sitofp i32 %33 to double
  %35 = load double, ptr %8, align 8
  %36 = fsub double %34, %35
  %37 = fdiv double %30, %36
  %38 = fsub double 1.000000e+00, %37
  store double %38, ptr %3, align 8
  br label %39

39:                                               ; preds = %20, %19
  %40 = load double, ptr %3, align 8
  ret double %40
}

; Function Attrs: mustprogress uwtable
define internal noundef float @_ZN2cv3dnn14dnn4_v20240521L11rectOverlapINS_5Rect_IiEEEEfRKT_S7_(ptr noundef nonnull align 4 dereferenceable(16) %0, ptr noundef nonnull align 4 dereferenceable(16) %1) #4 {
  %3 = alloca ptr, align 8
  %4 = alloca ptr, align 8
  store ptr %0, ptr %3, align 8
  store ptr %1, ptr %4, align 8
  %5 = load ptr, ptr %3, align 8
  %6 = load ptr, ptr %4, align 8
  %7 = call noundef double @_ZN2cvL15jaccardDistanceIiEEdRKNS_5Rect_IT_EES5_(ptr noundef nonnull align 4 dereferenceable(16) %5, ptr noundef nonnull align 4 dereferenceable(16) %6)
  %8 = fptrunc double %7 to float
  %9 = fsub float 1.000000e+00, %8
  ret float %9
}