; Function Attrs: mustprogress nofree norecurse nosync nounwind willreturn memory(argmem: read) uwtable
define internal noundef float @_ZN2cv3dnn14dnn4_v20240521L11rectOverlapINS_5Rect_IiEEEEfRKT_S7_(ptr nocapture noundef nonnull readonly align 4 dereferenceable(16) %0, ptr nocapture noundef nonnull readonly align 4 dereferenceable(16) %1) #5 {
  %3 = getelementptr inbounds i8, ptr %0, i64 8
  %4 = load i32, ptr %3, align 4
  %5 = getelementptr inbounds i8, ptr %0, i64 12
  %6 = load i32, ptr %5, align 4
  %7 = mul nsw i32 %6, %4
  %8 = getelementptr inbounds i8, ptr %1, i64 8
  %9 = load i32, ptr %8, align 4
  %10 = getelementptr inbounds i8, ptr %1, i64 12
  %11 = load i32, ptr %10, align 4
  %12 = mul nsw i32 %11, %9
  %13 = add nsw i32 %12, %7
  %.not.i = icmp sgt i32 %13, 0
  br i1 %.not.i, label %14, label %_ZN2cvL15jaccardDistanceIiEEdRKNS_5Rect_IT_EES5_.exit

14:                                               ; preds = %2
  %.sroa.0.0.copyload2754.i.i = load i32, ptr %0, align 4
  %.sroa_idx.i.i = getelementptr inbounds i8, ptr %0, i64 4
  %.sroa.0.0.copyload2755.i.i = load i32, ptr %.sroa_idx.i.i, align 4
  %15 = icmp slt i32 %4, 1
  %16 = icmp slt i32 %6, 1
  %17 = or i1 %15, %16
  br i1 %17, label %.sink.split.i.i.i, label %18

18:                                               ; preds = %14
  %19 = icmp slt i32 %9, 1
  %20 = icmp slt i32 %11, 1
  %21 = or i1 %19, %20
  br i1 %21, label %.sink.split.i.i.i, label %22

22:                                               ; preds = %18
  %23 = load i32, ptr %1, align 4
  %24 = icmp slt i32 %.sroa.0.0.copyload2754.i.i, %23
  %25 = tail call i32 @llvm.smin.i32(i32 %.sroa.0.0.copyload2754.i.i, i32 %23)
  %26 = tail call i32 @llvm.smax.i32(i32 %.sroa.0.0.copyload2754.i.i, i32 %23)
  %27 = getelementptr inbounds i8, ptr %1, i64 4
  %28 = load i32, ptr %27, align 4
  %29 = icmp slt i32 %.sroa.0.0.copyload2755.i.i, %28
  %30 = icmp slt i32 %25, 0
  br i1 %30, label %31, label %34

31:                                               ; preds = %22
  %.sroa.speculated46.i.i = select i1 %24, i32 %4, i32 %9
  %32 = add nsw i32 %.sroa.speculated46.i.i, %25
  %33 = icmp slt i32 %32, %26
  br i1 %33, label %.sink.split.i.i.i, label %34

34:                                               ; preds = %31, %22
  %.sroa.speculated66.i.i = tail call i32 @llvm.smin.i32(i32 %.sroa.0.0.copyload2755.i.i, i32 %28)
  %35 = icmp slt i32 %.sroa.speculated66.i.i, 0
  %.sroa.speculated34.i.i = select i1 %29, i32 %6, i32 %11
  br i1 %35, label %36, label %._crit_edge.i.i

._crit_edge.i.i:                                  ; preds = %34
  %.pre80.i.i = tail call i32 @llvm.smax.i32(i32 %.sroa.0.0.copyload2755.i.i, i32 %28)
  %.pre.i = add nuw i32 %.sroa.speculated34.i.i, %.sroa.speculated66.i.i
  br label %39

36:                                               ; preds = %34
  %37 = add nsw i32 %.sroa.speculated34.i.i, %.sroa.speculated66.i.i
  %.sroa.speculated57.i.i = tail call i32 @llvm.smax.i32(i32 %.sroa.0.0.copyload2755.i.i, i32 %28)
  %38 = icmp slt i32 %37, %.sroa.speculated57.i.i
  br i1 %38, label %.sink.split.i.i.i, label %39

39:                                               ; preds = %36, %._crit_edge.i.i
  %.neg49.i.i.pre-phi.i = phi i32 [ %37, %36 ], [ %.pre.i, %._crit_edge.i.i ]
  %.sroa.speculated60.pre-phi.i.i = phi i32 [ %.sroa.speculated57.i.i, %36 ], [ %.pre80.i.i, %._crit_edge.i.i ]
  %.sroa.speculated49.i.i = select i1 %24, i32 %4, i32 %9
  %.neg.i.i.i = sub i32 %25, %26
  %40 = add i32 %.neg.i.i.i, %.sroa.speculated49.i.i
  %.sroa.speculated43.i.i = select i1 %24, i32 %9, i32 %4
  %.sroa.speculated53.i.i.i = tail call i32 @llvm.smin.i32(i32 %.sroa.speculated43.i.i, i32 %40)
  %41 = sub i32 %.neg49.i.i.pre-phi.i, %.sroa.speculated60.pre-phi.i.i
  %.sroa.speculated.i.i = select i1 %29, i32 %11, i32 %6
  %.sroa.speculated.i.i.i = tail call i32 @llvm.smin.i32(i32 %.sroa.speculated.i.i, i32 %41)
  %42 = icmp slt i32 %.sroa.speculated53.i.i.i, 1
  %43 = icmp slt i32 %.sroa.speculated.i.i.i, 1
  %44 = select i1 %42, i1 true, i1 %43
  br i1 %44, label %.sink.split.i.i.i, label %_ZN2cvanIiEENS_5Rect_IT_EERKS3_S5_.exit.i

.sink.split.i.i.i:                                ; preds = %39, %36, %31, %18, %14
  br label %_ZN2cvanIiEENS_5Rect_IT_EERKS3_S5_.exit.i

_ZN2cvanIiEENS_5Rect_IT_EERKS3_S5_.exit.i:        ; preds = %.sink.split.i.i.i, %39
  %.sroa.11.sroa.0.0.i.i = phi i32 [ 0, %.sink.split.i.i.i ], [ %.sroa.speculated53.i.i.i, %39 ]
  %.sroa.11.sroa.8.0.i.i = phi i32 [ 0, %.sink.split.i.i.i ], [ %.sroa.speculated.i.i.i, %39 ]
  %45 = mul nsw i32 %.sroa.11.sroa.8.0.i.i, %.sroa.11.sroa.0.0.i.i
  %46 = uitofp nneg i32 %45 to double
  %47 = uitofp nneg i32 %13 to double
  %48 = fsub double %47, %46
  %49 = fdiv double %46, %48
  %50 = fsub double 1.000000e+00, %49
  %51 = fptrunc double %50 to float
  br label %_ZN2cvL15jaccardDistanceIiEEdRKNS_5Rect_IT_EES5_.exit

_ZN2cvL15jaccardDistanceIiEEdRKNS_5Rect_IT_EES5_.exit: ; preds = %2, %_ZN2cvanIiEENS_5Rect_IT_EERKS3_S5_.exit.i
  %.0.i = phi float [ %51, %_ZN2cvanIiEENS_5Rect_IT_EERKS3_S5_.exit.i ], [ 0.000000e+00, %2 ]
  %52 = fsub float 1.000000e+00, %.0.i
  ret float %52
}